; Function Attrs: mustprogress nounwind uwtable
define hidden void @_ZN5Block11find_removeEPK4Node(ptr noundef nonnull align 8 dereferenceable(144) %0, ptr noundef readnone %1) local_unnamed_addr #0 align 2 {
  %3 = getelementptr inbounds i8, ptr %0, i64 40
  %4 = load i32, ptr %3, align 8
  %.not.i = icmp eq i32 %4, 0
  br i1 %.not.i, label %._crit_edge.i, label %.lr.ph.i

.lr.ph.i:                                         ; preds = %2
  %5 = getelementptr inbounds i8, ptr %0, i64 24
  %6 = load i32, ptr %5, align 8
  %7 = getelementptr inbounds i8, ptr %0, i64 32
  %8 = load ptr, ptr %7, align 8
  %9 = zext i32 %6 to i64
  %wide.trip.count.i = zext i32 %4 to i64
  br label %10

10:                                               ; preds = %17, %.lr.ph.i
  %indvars.iv.i = phi i64 [ 0, %.lr.ph.i ], [ %indvars.iv.next.i, %17 ]
  %11 = icmp ult i64 %indvars.iv.i, %9
  br i1 %11, label %12, label %_ZNK5Block8get_nodeEj.exit.i

12:                                               ; preds = %10
  %13 = getelementptr inbounds ptr, ptr %8, i64 %indvars.iv.i
  %14 = load ptr, ptr %13, align 8
  br label %_ZNK5Block8get_nodeEj.exit.i

_ZNK5Block8get_nodeEj.exit.i:                     ; preds = %12, %10
  %15 = phi ptr [ %14, %12 ], [ null, %10 ]
  %16 = icmp eq ptr %15, %1
  br i1 %16, label %_ZNK5Block9find_nodeEPK4Node.exit, label %17

17:                                               ; preds = %_ZNK5Block8get_nodeEj.exit.i
  %indvars.iv.next.i = add nuw nsw i64 %indvars.iv.i, 1
  %exitcond.not.i = icmp eq i64 %indvars.iv.next.i, %wide.trip.count.i
  br i1 %exitcond.not.i, label %._crit_edge.i, label %10, !llvm.loop !10

._crit_edge.i:                                    ; preds = %17, %2
  %18 = load ptr, ptr @g_assert_poison, align 8
  store i8 88, ptr %18, align 1
  tail call void @_Z28report_should_not_reach_herePKci(ptr noundef nonnull @.str, i32 noundef 141) #13
  unreachable

_ZNK5Block9find_nodeEPK4Node.exit:                ; preds = %_ZNK5Block8get_nodeEj.exit.i
  %19 = trunc nuw i64 %indvars.iv.i to i32
  %20 = getelementptr inbounds i8, ptr %0, i64 16
  tail call void @_ZN10Node_Array6removeEj(ptr noundef nonnull align 8 dereferenceable(24) %20, i32 noundef %19) #12
  %21 = load i32, ptr %3, align 8
  %22 = add i32 %21, -1
  store i32 %22, ptr %3, align 8
  ret void
}